; ModuleID = 'bench/gromacs/original/baseversion.cpp.ll'
source_filename = "bench/gromacs/original/baseversion.cpp.ll"
target datalayout = "e-m:e-p270:32:32-p271:32:32-p272:64:64-i64:64-i128:128-f80:128-n8:16:32:64-S128"
target triple = "x86_64-pc-linux-gnu"

@gmx_ver_string = external constant [0 x i8], align 1
@gmx_full_git_hash = external constant [0 x i8], align 1
@gmx_central_base_hash = external constant [0 x i8], align 1
@gmxSourceDoiString = external constant [0 x i8], align 1
@.str = private unnamed_addr constant [9 x i8] c"disabled\00", align 1

; Function Attrs: mustprogress nofree norecurse nosync nounwind willreturn memory(none) uwtable
define noundef nonnull ptr @_Z11gmx_versionv() local_unnamed_addr #0 {
  ret ptr @gmx_ver_string
}

; Function Attrs: mustprogress nofree norecurse nosync nounwind willreturn memory(none) uwtable
define noundef nonnull ptr @_Z25gmx_version_git_full_hashv() local_unnamed_addr #0 {
  ret ptr @gmx_full_git_hash
}

; Function Attrs: mustprogress nofree norecurse nosync nounwind willreturn memory(none) uwtable
define noundef nonnull ptr @_Z33gmx_version_git_central_base_hashv() local_unnamed_addr #0 {
  ret ptr @gmx_central_base_hash
}

; Function Attrs: mustprogress nofree norecurse nosync nounwind willreturn memory(none) uwtable
define noundef nonnull ptr @_Z6gmxDOIv() local_unnamed_addr #0 {
  ret ptr @gmxSourceDoiString
}

; Function Attrs: mustprogress nofree norecurse nosync nounwind willreturn memory(none) uwtable
define void @_Z23gmx_is_single_precisionv() local_unnamed_addr #0 {
  ret void
}

; Function Attrs: mustprogress nofree norecurse nosync nounwind willreturn memory(none) uwtable
define noundef nonnull ptr @_Z26getGpuImplementationStringv() local_unnamed_addr #0 {
  ret ptr @.str
}


!llvm.module.flags = !{!0, !1, !2, !3, !4}

!0 = !{i32 1, !"wchar_size", i32 4}
!1 = !{i32 7, !"openmp", i32 51}
!2 = !{i32 8, !"PIC Level", i32 2}
!3 = !{i32 7, !"uwtable", i32 2}
!4 = !{i32 7, !"frame-pointer", i32 2}
